; Function Attrs: mustprogress uwtable
define dso_local void @_ZN5draco10ObjEncoder11EncodeFloatEf(ptr noundef nonnull align 8 dereferenceable(256) %0, float noundef %1) local_unnamed_addr #4 align 2 {
  %3 = getelementptr inbounds nuw i8, ptr %0, i64 48
  %4 = fpext float %1 to double
  %5 = tail call i32 (ptr, i64, ptr, ...) @snprintf(ptr noundef nonnull dereferenceable(1) %3, i64 noundef 20, ptr noundef nonnull @.str.12, double noundef %4) #24
  %6 = getelementptr inbounds nuw i8, ptr %0, i64 72
  %7 = load ptr, ptr %6, align 8, !tbaa !35
  %8 = getelementptr inbounds nuw i8, ptr %7, i64 32
  %9 = load i64, ptr %8, align 8, !tbaa !112
  %10 = icmp slt i64 %9, 1
  br i1 %10, label %11, label %_ZN5draco13EncoderBuffer6EncodeEPKvm.exit

11:                                               ; preds = %2
  %12 = tail call i64 @strlen(ptr noundef nonnull dereferenceable(1) %3) #27
  %13 = getelementptr inbounds nuw i8, ptr %7, i64 8
  %14 = load ptr, ptr %13, align 8, !tbaa !123
  %15 = getelementptr inbounds nuw i8, ptr %3, i64 %12
  %16 = load ptr, ptr %7, align 8, !tbaa !123
  %17 = ptrtoint ptr %14 to i64
  %18 = ptrtoint ptr %16 to i64
  %19 = sub i64 %17, %18
  %20 = getelementptr inbounds i8, ptr %16, i64 %19
  tail call void @_ZNSt6vectorIcSaIcEE15_M_range_insertIPKhEEvN9__gnu_cxx17__normal_iteratorIPcS1_EET_S9_St20forward_iterator_tag(ptr noundef nonnull align 8 dereferenceable(41) %7, ptr %20, ptr noundef nonnull %3, ptr noundef nonnull %15)
  br label %_ZN5draco13EncoderBuffer6EncodeEPKvm.exit

_ZN5draco13EncoderBuffer6EncodeEPKvm.exit:        ; preds = %2, %11
  ret void
}